	.file	"single.cpp"
	.text
	.section	.rodata
	.type	_ZStL19piecewise_construct, @object
	.size	_ZStL19piecewise_construct, 1
_ZStL19piecewise_construct:
	.zero	1
	.local	_ZStL8__ioinit
	.comm	_ZStL8__ioinit,1,1
.LC1:
	.string	"\347\224\250\346\227\266"
.LC2:
	.string	"ms"
	.text
	.globl	main
	.type	main, @function
main:
.LFB1522:
	.cfi_startproc
	endbr64
	pushq	%rbp
	.cfi_def_cfa_offset 16
	.cfi_offset 6, -16
	movq	%rsp, %rbp
	.cfi_def_cfa_register 6
	pushq	%rbx
	subq	$104, %rsp
	.cfi_offset 3, -24
	movq	%fs:40, %rax
	movq	%rax, -24(%rbp)
	xorl	%eax, %eax
	movq	%rsp, %rax
	movq	%rax, %rbx
	movl	$131072, -100(%rbp)
	movq	$0, -96(%rbp)
	movl	-100(%rbp), %eax
	cltq
	subq	$1, %rax
	movq	%rax, -88(%rbp)
	movq	%rax, %rdx
	addq	$1, %rdx
	movq	%rdx, %r8
	movl	$0, %r9d
	movq	%rax, %rdx
	addq	$1, %rdx
	movq	%rdx, %rsi
	movl	$0, %edi
	addq	$1, %rax
	leaq	0(,%rax,4), %rdx
	movl	$16, %eax
	subq	$1, %rax
	addq	%rdx, %rax
	movl	$16, %edi
	movl	$0, %edx
	divq	%rdi
	imulq	$16, %rax, %rax
	movq	%rax, %rdx
	andq	$-4096, %rdx
	movq	%rsp, %rcx
	subq	%rdx, %rcx
	movq	%rcx, %rdx
.L2:
	cmpq	%rdx, %rsp
	je	.L3
	subq	$4096, %rsp
	orq	$0, 4088(%rsp)
	jmp	.L2
.L3:
	movq	%rax, %rdx
	andl	$4095, %edx
	subq	%rdx, %rsp
	movq	%rax, %rdx
	andl	$4095, %edx
	testq	%rdx, %rdx
	je	.L4
	andl	$4095, %eax
	subq	$8, %rax
	addq	%rsp, %rax
	orq	$0, (%rax)
.L4:
	movq	%rsp, %rax
	addq	$3, %rax
	shrq	$2, %rax
	salq	$2, %rax
	movq	%rax, -80(%rbp)
	leaq	-64(%rbp), %rax
	movl	$0, %esi
	movq	%rax, %rdi
	call	gettimeofday@PLT
	movl	$0, -104(%rbp)
.L10:
	cmpl	$99, -104(%rbp)
	jg	.L5
	movl	$0, -108(%rbp)
.L7:
	movl	-108(%rbp), %eax
	cmpl	-100(%rbp), %eax
	jge	.L6
	call	rand@PLT
	movslq	%eax, %rdx
	imulq	$1374389535, %rdx, %rdx
	shrq	$32, %rdx
	movl	%edx, %ecx
	sarl	$5, %ecx
	cltd
	subl	%edx, %ecx
	movl	%ecx, %edx
	imull	$100, %edx, %edx
	subl	%edx, %eax
	movl	%eax, %edx
	leal	1(%rdx), %ecx
	movq	-80(%rbp), %rax
	movl	-108(%rbp), %edx
	movslq	%edx, %rdx
	movl	%ecx, (%rax,%rdx,4)
	addl	$1, -108(%rbp)
	jmp	.L7
.L6:
	movl	$0, -112(%rbp)
.L9:
	movl	-112(%rbp), %eax
	cmpl	-100(%rbp), %eax
	jge	.L8
	movq	-80(%rbp), %rax
	movl	-112(%rbp), %edx
	movslq	%edx, %rdx
	movl	(%rax,%rdx,4), %eax
	cltq
	addq	%rax, -96(%rbp)
	addl	$1, -112(%rbp)
	jmp	.L9
.L8:
	movq	$0, -96(%rbp)
	addl	$1, -104(%rbp)
	jmp	.L10
.L5:
	leaq	-48(%rbp), %rax
	movl	$0, %esi
	movq	%rax, %rdi
	call	gettimeofday@PLT
	movq	-48(%rbp), %rdx
	movq	-64(%rbp), %rax
	subq	%rax, %rdx
	movq	%rdx, %rax
	cvtsi2sdq	%rax, %xmm1
	movsd	.LC0(%rip), %xmm0
	mulsd	%xmm0, %xmm1
	movq	-40(%rbp), %rdx
	movq	-56(%rbp), %rax
	subq	%rax, %rdx
	movq	%rdx, %rax
	cvtsi2sdq	%rax, %xmm0
	movsd	.LC0(%rip), %xmm2
	divsd	%xmm2, %xmm0
	addsd	%xmm1, %xmm0
	movsd	%xmm0, -72(%rbp)
	leaq	.LC1(%rip), %rsi
	leaq	_ZSt4cout(%rip), %rdi
	call	_ZStlsISt11char_traitsIcEERSt13basic_ostreamIcT_ES5_PKc@PLT
	movq	%rax, %rdx
	movq	-72(%rbp), %rax
	movq	%rax, %xmm0
	movq	%rdx, %rdi
	call	_ZNSolsEd@PLT
	leaq	.LC2(%rip), %rsi
	movq	%rax, %rdi
	call	_ZStlsISt11char_traitsIcEERSt13basic_ostreamIcT_ES5_PKc@PLT
	movq	%rax, %rdx
	movq	_ZSt4endlIcSt11char_traitsIcEERSt13basic_ostreamIT_T0_ES6_@GOTPCREL(%rip), %rax
	movq	%rax, %rsi
	movq	%rdx, %rdi
	call	_ZNSolsEPFRSoS_E@PLT
	movl	$0, %eax
	movq	%rbx, %rsp
	movq	-24(%rbp), %rbx
	xorq	%fs:40, %rbx
	je	.L12
	call	__stack_chk_fail@PLT
.L12:
	movq	-8(%rbp), %rbx
	leave
	.cfi_def_cfa 7, 8
	ret
	.cfi_endproc
.LFE1522:
	.size	main, .-main
	.type	_Z41__static_initialization_and_destruction_0ii, @function
_Z41__static_initialization_and_destruction_0ii:
.LFB2012:
	.cfi_startproc
	endbr64
	pushq	%rbp
	.cfi_def_cfa_offset 16
	.cfi_offset 6, -16
	movq	%rsp, %rbp
	.cfi_def_cfa_register 6
	subq	$16, %rsp
	movl	%edi, -4(%rbp)
	movl	%esi, -8(%rbp)
	cmpl	$1, -4(%rbp)
	jne	.L15
	cmpl	$65535, -8(%rbp)
	jne	.L15
	leaq	_ZStL8__ioinit(%rip), %rdi
	call	_ZNSt8ios_base4InitC1Ev@PLT
	leaq	__dso_handle(%rip), %rdx
	leaq	_ZStL8__ioinit(%rip), %rsi
	movq	_ZNSt8ios_base4InitD1Ev@GOTPCREL(%rip), %rax
	movq	%rax, %rdi
	call	__cxa_atexit@PLT
.L15:
	nop
	leave
	.cfi_def_cfa 7, 8
	ret
	.cfi_endproc
.LFE2012:
	.size	_Z41__static_initialization_and_destruction_0ii, .-_Z41__static_initialization_and_destruction_0ii
	.type	_GLOBAL__sub_I_main, @function
_GLOBAL__sub_I_main:
.LFB2013:
	.cfi_startproc
	endbr64
	pushq	%rbp
	.cfi_def_cfa_offset 16
	.cfi_offset 6, -16
	movq	%rsp, %rbp
	.cfi_def_cfa_register 6
	movl	$65535, %esi
	movl	$1, %edi
	call	_Z41__static_initialization_and_destruction_0ii
	popq	%rbp
	.cfi_def_cfa 7, 8
	ret
	.cfi_endproc
.LFE2013:
	.size	_GLOBAL__sub_I_main, .-_GLOBAL__sub_I_main
	.section	.init_array,"aw"
	.align 8
	.quad	_GLOBAL__sub_I_main
	.section	.rodata
	.align 8
.LC0:
	.long	0
	.long	1083129856
	.hidden	__dso_handle
	.ident	"GCC: (Ubuntu 9.4.0-1ubuntu1~20.04) 9.4.0"
	.section	.note.GNU-stack,"",@progbits
	.section	.note.gnu.property,"a"
	.align 8
	.long	 1f - 0f
	.long	 4f - 1f
	.long	 5
0:
	.string	 "GNU"
1:
	.align 8
	.long	 0xc0000002
	.long	 3f - 2f
2:
	.long	 0x3
3:
	.align 8
4:
